ccopy_reg
_reconstructor
p1
(csmtk.sm_database
GroundMotionDatabase
p2
c__builtin__
object
p3
NtRp4
(dp5
S'directory'
p6
NsS'records'
p7
(lp8
g1
(csmtk.sm_database
GroundMotionRecord
p9
g3
NtRp10
(dp11
S'distance'
p12
g1
(csmtk.sm_database
RecordDistance
p13
g3
NtRp14
(dp15
S'r_x'
p16
NsS'rhypo'
p17
F10
sS'flag'
p18
I0
sS'rjb'
p19
F0
sS'repi'
p20
F4
sS'rrup'
p21
NsbsS'datafile'
p22
S'data/LAquila_Database/records/16833.hdf5'
p23
sS'directivity'
p24
NsS'vertical'
p25
g1
(csmtk.sm_database
Component
p26
g3
NtRp27
(dp28
S'lup'
p29
NsS'baseline'
p30
S'Zeroth Order Baseline Correction'
p31
sS'filter'
p32
(dp33
S'Passes'
p34
I2
sS'NRoll'
p35
I2
sS'Low-Cut'
p36
F0.10000000000000001
sS'High-Cut'
p37
F50
sS'Type'
p38
S'Acausal Butterworth (Bandpass)'
p39
sS'Order'
p40
S'4-pole/4-pole'
p41
ssS'ims'
p42
(dp43
S'PGV'
p44
F10.4174934
sS'PGD'
p45
NsS'PGA'
p46
F258.50007199999999
ssS'units'
p47
NsS'id'
p48
S'16833'
p49
sS'orientation'
p50
S'UP'
p51
sbsS'yrecord'
p52
g1
(g26
g3
NtRp53
(dp54
g29
Nsg30
S'Zeroth Order Baseline Correction'
p55
sg32
(dp56
g34
I2
sg35
I2
sg36
F0.10000000000000001
sg37
F50
sg38
S'Acausal Butterworth (Bandpass)'
p57
sg40
S'4-pole/4-pole'
p58
ssg42
(dp59
g44
F31.139098700000002
sg45
Nsg46
F467.56410800000003
ssg47
Nsg48
g49
sg50
S'WE'
p60
sbsS'site'
p61
g1
(csmtk.sm_database
RecordSite
p62
g3
NtRp63
(dp64
S'instrument_type'
p65
S'Digital'
p66
sS'nspt'
p67
NsS'nehrp'
p68
NsS'code'
p69
S'L Aquila - V. Aterno - Colle Grilli'
p70
sS'vs30_measured_type'
p71
S'DH'
p72
sS'name'
p73
S'AQG'
p74
sS'floor'
p75
S''
sS'country'
p76
S'Italy'
p77
sS'altitude'
p78
F721
sS'digitiser'
p79
S''
sS'network_code'
p80
S'Servizio Sismico Nazionale (SSN), Ufficio Sistemi di Monitoraggio, Rome, Italy'
p81
sS'number_floors'
p82
NsS'longitude'
p83
F13.337026
sS'building_structure'
p84
S''
sS'z2pt5'
p85
NsS'vs30'
p86
F684.84199999999998
sS'latitude'
p87
F42.373474000000002
sS'z1pt0'
p88
Nsg48
S'2987'
p89
sS'vs30_measured'
p90
I0
sS'ec8'
p91
S''
sbsS'time_series_file'
p92
(lp93
S'16833/16833_H1.cor.acc'
p94
aS'16833/16833_H2.cor.acc'
p95
aS'16833/16833_V.cor.acc'
p96
asS'event'
p97
g1
(csmtk.sm_database
Earthquake
p98
g3
NtRp99
(dp100
g73
S'L Aquila Mainshock'
p101
sg76
S'Italy'
p102
sg83
F13.334
sS'datetime'
p103
cdatetime
datetime
p104
(S"\x07\xd9\x04\x06\x01 '\x00\x00\x00"
tRp105
sS'depth'
p106
F8.8000000000000007
sS'magnitude'
p107
g1
(csmtk.sm_database
Magnitude
p108
g3
NtRp109
(dp110
S'mtype'
p111
S'Mw'
p112
sS'sigma'
p113
NsS'value'
p114
F6.2999999999999998
sbsS'mechanism'
p115
g1
(csmtk.sm_database
FocalMechanism
p116
g3
NtRp117
(dp118
S'mechanism_type'
p119
S'Normal'
p120
sS'tensor'
p121
NsS'nodal_planes'
p122
g1
(csmtk.sm_database
GCMTNodalPlanes
p123
g3
NtRp124
(dp125
S'nodal_plane_2'
p126
(dp127
S'strike'
p128
NsS'rake'
p129
NsS'dip'
p130
NssS'nodal_plane_1'
p131
(dp132
g128
F127
sg129
F-109
sg130
F50
ssbsS'eigenvalues'
p133
g1
(csmtk.sm_database
GCMTPrincipalAxes
p134
g3
NtRp135
(dp136
S'p_axis'
p137
NsS'b_axis'
p138
NsS'p_axes'
p139
(dp140
S'eigenvalue'
p141
NsS'plunge'
p142
F75.170000000000002
sS'azimuth'
p143
F332.93000000000001
ssS't_axis'
p144
NsS'b_axes'
p145
(dp146
g141
Nsg142
Nsg143
NssS't_axes'
p147
(dp148
g141
Nsg142
F3.2999999999999998
sg143
F230.33000000000001
ssbsg48
S'20090406_0000075'
p149
sg73
g101
sbsS'magnitude_list'
p150
(lp151
g1
(g108
g3
NtRp152
(dp153
g111
S'Ml'
p154
sg113
Nsg114
F5.7999999999999998
sbag1
(g108
g3
NtRp155
(dp156
g111
S'Mw'
p157
sg113
Nsg114
F6.2999999999999998
sbag1
(g108
g3
NtRp158
(dp159
g111
S''
sg113
Nsg114
Nsbag1
(g108
g3
NtRp160
(dp161
g111
S''
sg113
Nsg114
Nsbag1
(g108
g3
NtRp162
(dp163
g111
S''
sg113
Nsg114
Nsbasg87
F42.334000000000003
sS'rupture'
p164
g1
(csmtk.sm_database
Rupture
p165
g3
NtRp166
(dp167
S'area'
p168
Nsg106
NsS'surface'
p169
NsS'width'
p170
NsS'length'
p171
Nsg48
g149
sbsg48
g149
sbsS'average_lup'
p172
F9
sS'spectra_file'
p173
(lp174
S'16833/16833_H1.rs'
p175
aS'16833/16833_H2.rs'
p176
aS'16833/16833_V.rs'
p177
asg42
NsS'xrecord'
p178
g1
(g26
g3
NtRp179
(dp180
g29
Nsg30
S'Zeroth Order Baseline Correction'
p181
sg32
(dp182
g34
I2
sg35
I2
sg36
F0.10000000000000001
sg37
F50
sg38
S'Acausal Butterworth (Bandpass)'
p183
sg40
S'4-pole/4-pole'
p184
ssg42
(dp185
g44
F35.7390829
sg45
Nsg46
F506.932929
ssg47
Nsg48
g49
sg50
S'NS'
p186
sbsg48
g49
sbag1
(g9
g3
NtRp187
(dp188
g12
g1
(g13
g3
NtRp189
(dp190
g16
Nsg17
F10
sg18
I0
sg19
F0
sg20
F5
sg21
Nsbsg22
S'data/LAquila_Database/records/16835.hdf5'
p191
sg24
Nsg25
g1
(g26
g3
NtRp192
(dp193
g29
Nsg30
S'Zeroth Order Baseline Correction'
p194
sg32
(dp195
g34
I2
sg35
I2
sg36
F0.10000000000000001
sg37
F50
sg38
S'Acausal Butterworth (Bandpass)'
p196
sg40
S'4-pole/4-pole'
p197
ssg42
(dp198
g44
F9.4060387900000002
sg45
Nsg46
F477.53388899999993
ssg47
Nsg48
S'16835'
p199
sg50
S'UP'
p200
sbsg52
g1
(g26
g3
NtRp201
(dp202
g29
Nsg30
S'Zeroth Order Baseline Correction'
p203
sg32
(dp204
g34
I2
sg35
I2
sg36
F0.10000000000000001
sg37
F50
sg38
S'Acausal Butterworth (Bandpass)'
p205
sg40
S'4-pole/4-pole'
p206
ssg42
(dp207
g44
F11.0249486
sg45
Nsg46
F147.43128299999998
ssg47
Nsg48
g199
sg50
S'WE'
p208
sbsg61
g1
(g62
g3
NtRp209
(dp210
g65
S'Digital'
p211
sg67
Nsg68
Nsg69
S'L Aquila - V. Aterno - F. Aterno'
p212
sg71
S'DH'
p213
sg73
S'AQA'
p214
sg75
S''
sg76
S'Italy'
p215
sg78
F693
sg79
S''
sg80
S''
sg82
Nsg83
F13.339297999999999
sg84
S''
sg85
Nsg86
F551.78700000000003
sg87
F42.375529999999998
sg88
Nsg48
S'3609'
p216
sg90
I0
sg91
S''
sbsg92
(lp217
S'16835/16835_H1.cor.acc'
p218
aS'16835/16835_H2.cor.acc'
p219
aS'16835/16835_V.cor.acc'
p220
asg97
g1
(g98
g3
NtRp221
(dp222
g73
S'L Aquila Mainshock'
p223
sg76
S'Italy'
p224
sg83
F13.334
sg103
g104
(S"\x07\xd9\x04\x06\x01 '\x00\x00\x00"
tRp225
sg106
F8.8000000000000007
sg107
g1
(g108
g3
NtRp226
(dp227
g111
S'Mw'
p228
sg113
Nsg114
F6.2999999999999998
sbsg115
g1
(g116
g3
NtRp229
(dp230
g119
S'Normal'
p231
sg121
Nsg122
g1
(g123
g3
NtRp232
(dp233
g126
(dp234
g128
Nsg129
Nsg130
Nssg131
(dp235
g128
F127
sg129
F-109
sg130
F50
ssbsg133
g1
(g134
g3
NtRp236
(dp237
g137
Nsg138
Nsg139
(dp238
g141
Nsg142
F75.170000000000002
sg143
F332.93000000000001
ssg144
Nsg145
(dp239
g141
Nsg142
Nsg143
Nssg147
(dp240
g141
Nsg142
F3.2999999999999998
sg143
F230.33000000000001
ssbsg48
S'20090406_0000075'
p241
sg73
g223
sbsg150
(lp242
g1
(g108
g3
NtRp243
(dp244
g111
S'Ml'
p245
sg113
Nsg114
F5.7999999999999998
sbag1
(g108
g3
NtRp246
(dp247
g111
S'Mw'
p248
sg113
Nsg114
F6.2999999999999998
sbag1
(g108
g3
NtRp249
(dp250
g111
S''
sg113
Nsg114
Nsbag1
(g108
g3
NtRp251
(dp252
g111
S''
sg113
Nsg114
Nsbag1
(g108
g3
NtRp253
(dp254
g111
S''
sg113
Nsg114
Nsbasg87
F42.334000000000003
sg164
g1
(g165
g3
NtRp255
(dp256
g168
Nsg106
Nsg169
Nsg170
Nsg171
Nsg48
g241
sbsg48
g241
sbsg172
F9
sg173
(lp257
S'16835/16835_H1.rs'
p258
aS'16835/16835_H2.rs'
p259
aS'16835/16835_V.rs'
p260
asg42
Nsg178
g1
(g26
g3
NtRp261
(dp262
g29
Nsg30
S'Zeroth Order Baseline Correction'
p263
sg32
(dp264
g34
I2
sg35
I2
sg36
F0.10000000000000001
sg37
F50
sg38
S'Acausal Butterworth (Bandpass)'
p265
sg40
S'4-pole/4-pole'
p266
ssg42
(dp267
g44
F9.3249606200000006
sg45
Nsg46
F156.39358100000001
ssg47
Nsg48
g199
sg50
S'NS'
p268
sbsg48
g199
sbag1
(g9
g3
NtRp269
(dp270
g12
g1
(g13
g3
NtRp271
(dp272
g16
Nsg17
F10
sg18
I0
sg19
F0
sg20
F5
sg21
Nsbsg22
S'data/LAquila_Database/records/16837.hdf5'
p273
sg24
Nsg25
g1
(g26
g3
NtRp274
(dp275
g29
Nsg30
S'Zeroth Order Baseline Correction'
p276
sg32
(dp277
g34
I2
sg35
I2
sg36
F0.10000000000000001
sg37
F50
sg38
S'Acausal Butterworth (Bandpass)'
p278
sg40
S'4-pole/4-pole'
p279
ssg42
(dp280
g44
F12.457470299999999
sg45
Nsg46
F516.89187600000002
ssg47
Nsg48
S'16837'
p281
sg50
S'UP'
p282
sbsg52
g1
(g26
g3
NtRp283
(dp284
g29
Nsg30
S'Zeroth Order Baseline Correction'
p285
sg32
(dp286
g34
I2
sg35
I2
sg36
F0.10000000000000001
sg37
F50
sg38
S'Acausal Butterworth (Bandpass)'
p287
sg40
S'4-pole/4-pole'
p288
ssg42
(dp289
g44
F40.385558799999998
sg45
Nsg46
F650.65523599999995
ssg47
Nsg48
g281
sg50
S'WE'
p290
sbsg61
g1
(g62
g3
NtRp291
(dp292
g65
S'Digital'
p293
sg67
Nsg68
Nsg69
S'L Aquila - V. Aterno - Centro Valle'
p294
sg71
S'CH'
p295
sg73
S'AQV'
p296
sg75
S''
sg76
S'Italy'
p297
sg78
F692
sg79
S''
sg80
S''
sg82
Nsg83
F13.343888
sg84
S''
sg85
Nsg86
F473.68599999999998
sg87
F42.377222000000003
sg88
Nsg48
S'3614'
p298
sg90
I0
sg91
S''
sbsg92
(lp299
S'16837/16837_H1.cor.acc'
p300
aS'16837/16837_H2.cor.acc'
p301
aS'16837/16837_V.cor.acc'
p302
asg97
g1
(g98
g3
NtRp303
(dp304
g73
S'L Aquila Mainshock'
p305
sg76
S'Italy'
p306
sg83
F13.334
sg103
g104
(S"\x07\xd9\x04\x06\x01 '\x00\x00\x00"
tRp307
sg106
F8.8000000000000007
sg107
g1
(g108
g3
NtRp308
(dp309
g111
S'Mw'
p310
sg113
Nsg114
F6.2999999999999998
sbsg115
g1
(g116
g3
NtRp311
(dp312
g119
S'Normal'
p313
sg121
Nsg122
g1
(g123
g3
NtRp314
(dp315
g126
(dp316
g128
Nsg129
Nsg130
Nssg131
(dp317
g128
F127
sg129
F-109
sg130
F50
ssbsg133
g1
(g134
g3
NtRp318
(dp319
g137
Nsg138
Nsg139
(dp320
g141
Nsg142
F75.170000000000002
sg143
F332.93000000000001
ssg144
Nsg145
(dp321
g141
Nsg142
Nsg143
Nssg147
(dp322
g141
Nsg142
F3.2999999999999998
sg143
F230.33000000000001
ssbsg48
S'20090406_0000075'
p323
sg73
g305
sbsg150
(lp324
g1
(g108
g3
NtRp325
(dp326
g111
S'Ml'
p327
sg113
Nsg114
F5.7999999999999998
sbag1
(g108
g3
NtRp328
(dp329
g111
S'Mw'
p330
sg113
Nsg114
F6.2999999999999998
sbag1
(g108
g3
NtRp331
(dp332
g111
S''
sg113
Nsg114
Nsbag1
(g108
g3
NtRp333
(dp334
g111
S''
sg113
Nsg114
Nsbag1
(g108
g3
NtRp335
(dp336
g111
S''
sg113
Nsg114
Nsbasg87
F42.334000000000003
sg164
g1
(g165
g3
NtRp337
(dp338
g168
Nsg106
Nsg169
Nsg170
Nsg171
Nsg48
g323
sbsg48
g323
sbsg172
F9
sg173
(lp339
S'16837/16837_H1.rs'
p340
aS'16837/16837_H2.rs'
p341
aS'16837/16837_V.rs'
p342
asg42
Nsg178
g1
(g26
g3
NtRp343
(dp344
g29
Nsg30
S'Zeroth Order Baseline Correction'
p345
sg32
(dp346
g34
I2
sg35
I2
sg36
F0.10000000000000001
sg37
F50
sg38
S'Acausal Butterworth (Bandpass)'
p347
sg40
S'4-pole/4-pole'
p348
ssg42
(dp349
g44
F42.707211999999998
sg45
Nsg46
F536.60637800000006
ssg47
Nsg48
g281
sg50
S'NS'
p350
sbsg48
g281
sbag1
(g9
g3
NtRp351
(dp352
g12
g1
(g13
g3
NtRp353
(dp354
g16
Nsg17
F36
sg18
I0
sg19
F25
sg20
F35
sg21
Nsbsg22
S'data/LAquila_Database/records/16839.hdf5'
p355
sg24
Nsg25
g1
(g26
g3
NtRp356
(dp357
g29
Nsg30
S'Zeroth Order Baseline Correction'
p358
sg32
(dp359
g34
I2
sg35
I2
sg36
F0.050000000000000003
sg37
F999
sg38
S'Acausal Butterworth (Bandpass)'
p360
sg40
S'4-pole/4-pole'
p361
ssg42
(dp362
g44
F3.7196003800000002
sg45
Nsg46
F26.123000000000001
ssg47
Nsg48
S'16839'
p363
sg50
S'UP'
p364
sbsg52
g1
(g26
g3
NtRp365
(dp366
g29
Nsg30
S'Zeroth Order Baseline Correction'
p367
sg32
(dp368
g34
I2
sg35
I2
sg36
F0.050000000000000003
sg37
F80
sg38
S'Acausal Butterworth (Bandpass)'
p369
sg40
S'4-pole/4-pole'
p370
ssg42
(dp371
g44
F10.7884662
sg45
Nsg46
F54.817000000000007
ssg47
Nsg48
g363
sg50
S'WE'
p372
sbsg61
g1
(g62
g3
NtRp373
(dp374
g65
S'Digital'
p375
sg67
Nsg68
Nsg69
S'Avezzano'
p376
sg71
S'MASW'
p377
sg73
S'AVZ'
p378
sg75
S''
sg76
S'Italy'
p379
sg78
F746
sg79
S''
sg80
S''
sg82
Nsg83
F13.425929
sg84
S''
sg85
Nsg86
F199
sg87
F42.027458000000003
sg88
Nsg48
S'3620'
p380
sg90
I0
sg91
S''
sbsg92
(lp381
S'16839/16839_H1.cor.acc'
p382
aS'16839/16839_H2.cor.acc'
p383
aS'16839/16839_V.cor.acc'
p384
asg97
g1
(g98
g3
NtRp385
(dp386
g73
S'L Aquila Mainshock'
p387
sg76
S'Italy'
p388
sg83
F13.334
sg103
g104
(S"\x07\xd9\x04\x06\x01 '\x00\x00\x00"
tRp389
sg106
F8.8000000000000007
sg107
g1
(g108
g3
NtRp390
(dp391
g111
S'Mw'
p392
sg113
Nsg114
F6.2999999999999998
sbsg115
g1
(g116
g3
NtRp393
(dp394
g119
S'Normal'
p395
sg121
Nsg122
g1
(g123
g3
NtRp396
(dp397
g126
(dp398
g128
Nsg129
Nsg130
Nssg131
(dp399
g128
F127
sg129
F-109
sg130
F50
ssbsg133
g1
(g134
g3
NtRp400
(dp401
g137
Nsg138
Nsg139
(dp402
g141
Nsg142
F75.170000000000002
sg143
F332.93000000000001
ssg144
Nsg145
(dp403
g141
Nsg142
Nsg143
Nssg147
(dp404
g141
Nsg142
F3.2999999999999998
sg143
F230.33000000000001
ssbsg48
S'20090406_0000075'
p405
sg73
g387
sbsg150
(lp406
g1
(g108
g3
NtRp407
(dp408
g111
S'Ml'
p409
sg113
Nsg114
F5.7999999999999998
sbag1
(g108
g3
NtRp410
(dp411
g111
S'Mw'
p412
sg113
Nsg114
F6.2999999999999998
sbag1
(g108
g3
NtRp413
(dp414
g111
S''
sg113
Nsg114
Nsbag1
(g108
g3
NtRp415
(dp416
g111
S''
sg113
Nsg114
Nsbag1
(g108
g3
NtRp417
(dp418
g111
S''
sg113
Nsg114
Nsbasg87
F42.334000000000003
sg164
g1
(g165
g3
NtRp419
(dp420
g168
Nsg106
Nsg169
Nsg170
Nsg171
Nsg48
g405
sbsg48
g405
sbsg172
F19.399999999999999
sg173
(lp421
S'16839/16839_H1.rs'
p422
aS'16839/16839_H2.rs'
p423
aS'16839/16839_V.rs'
p424
asg42
Nsg178
g1
(g26
g3
NtRp425
(dp426
g29
Nsg30
S'Zeroth Order Baseline Correction'
p427
sg32
(dp428
g34
I2
sg35
I2
sg36
F0.050000000000000003
sg37
F65
sg38
S'Acausal Butterworth (Bandpass)'
p429
sg40
S'4-pole/4-pole'
p430
ssg42
(dp431
g44
F11.2737037
sg45
Nsg46
F67.694000000000003
ssg47
Nsg48
g363
sg50
S'NS'
p432
sbsg48
g363
sbag1
(g9
g3
NtRp433
(dp434
g12
g1
(g13
g3
NtRp435
(dp436
g16
Nsg17
F200
sg18
I0
sg19
F194
sg20
F200
sg21
Nsbsg22
S'data/LAquila_Database/records/16840.hdf5'
p437
sg24
Nsg25
g1
(g26
g3
NtRp438
(dp439
g29
Nsg30
S'Zeroth Order Baseline Correction'
p440
sg32
(dp441
g34
I2
sg35
I2
sg36
F0.10000000000000001
sg37
F15
sg38
S'Acausal Butterworth (Bandpass)'
p442
sg40
S'4-pole/4-pole'
p443
ssg42
(dp444
g44
F0.26337845200000004
sg45
Nsg46
F0.75513000000000008
ssg47
Nsg48
S'16840'
p445
sg50
S'UP'
p446
sbsg52
g1
(g26
g3
NtRp447
(dp448
g29
Nsg30
S'Zeroth Order Baseline Correction'
p449
sg32
(dp450
g34
I2
sg35
I2
sg36
F0.10000000000000001
sg37
F13
sg38
S'Acausal Butterworth (Bandpass)'
p451
sg40
S'4-pole/4-pole'
p452
ssg42
(dp453
g44
F0.25814520699999999
sg45
Nsg46
F0.61305999999999994
ssg47
Nsg48
g445
sg50
S'WE'
p454
sbsg61
g1
(g62
g3
NtRp455
(dp456
g65
S'Digital'
p457
sg67
Nsg68
Nsg69
S'Bibbiena (Nuova)'
p458
sg71
S'DH'
p459
sg73
S'BBN'
p460
sg75
S''
sg76
S'Italy'
p461
sg78
F471
sg79
S''
sg80
S''
sg82
Nsg83
F11.821427999999999
sg84
S''
sg85
Nsg86
F296.12299999999999
sg87
F43.747646000000003
sg88
Nsg48
S'3623'
p462
sg90
I0
sg91
S''
sbsg92
(lp463
S'16840/16840_H1.cor.acc'
p464
aS'16840/16840_H2.cor.acc'
p465
aS'16840/16840_V.cor.acc'
p466
asg97
g1
(g98
g3
NtRp467
(dp468
g73
S'L Aquila Mainshock'
p469
sg76
S'Italy'
p470
sg83
F13.334
sg103
g104
(S"\x07\xd9\x04\x06\x01 '\x00\x00\x00"
tRp471
sg106
F8.8000000000000007
sg107
g1
(g108
g3
NtRp472
(dp473
g111
S'Mw'
p474
sg113
Nsg114
F6.2999999999999998
sbsg115
g1
(g116
g3
NtRp475
(dp476
g119
S'Normal'
p477
sg121
Nsg122
g1
(g123
g3
NtRp478
(dp479
g126
(dp480
g128
Nsg129
Nsg130
Nssg131
(dp481
g128
F127
sg129
F-109
sg130
F50
ssbsg133
g1
(g134
g3
NtRp482
(dp483
g137
Nsg138
Nsg139
(dp484
g141
Nsg142
F75.170000000000002
sg143
F332.93000000000001
ssg144
Nsg145
(dp485
g141
Nsg142
Nsg143
Nssg147
(dp486
g141
Nsg142
F3.2999999999999998
sg143
F230.33000000000001
ssbsg48
S'20090406_0000075'
p487
sg73
g469
sbsg150
(lp488
g1
(g108
g3
NtRp489
(dp490
g111
S'Ml'
p491
sg113
Nsg114
F5.7999999999999998
sbag1
(g108
g3
NtRp492
(dp493
g111
S'Mw'
p494
sg113
Nsg114
F6.2999999999999998
sbag1
(g108
g3
NtRp495
(dp496
g111
S''
sg113
Nsg114
Nsbag1
(g108
g3
NtRp497
(dp498
g111
S''
sg113
Nsg114
Nsbag1
(g108
g3
NtRp499
(dp500
g111
S''
sg113
Nsg114
Nsbasg87
F42.334000000000003
sg164
g1
(g165
g3
NtRp501
(dp502
g168
Nsg106
Nsg169
Nsg170
Nsg171
Nsg48
g487
sbsg48
g487
sbsg172
F9.6999999999999993
sg173
(lp503
S'16840/16840_H1.rs'
p504
aS'16840/16840_H2.rs'
p505
aS'16840/16840_V.rs'
p506
asg42
Nsg178
g1
(g26
g3
NtRp507
(dp508
g29
Nsg30
S'Zeroth Order Baseline Correction'
p509
sg32
(dp510
g34
I2
sg35
I2
sg36
F0.10000000000000001
sg37
F18
sg38
S'Acausal Butterworth (Bandpass)'
p511
sg40
S'4-pole/4-pole'
p512
ssg42
(dp513
g44
F0.24662989500000002
sg45
Nsg46
F1.0022
ssg47
Nsg48
g445
sg50
S'NS'
p514
sbsg48
g445
sbag1
(g9
g3
NtRp515
(dp516
g12
g1
(g13
g3
NtRp517
(dp518
g16
Nsg17
F134
sg18
I0
sg19
F121
sg20
F133
sg21
Nsbsg22
S'data/LAquila_Database/records/16843.hdf5'
p519
sg24
Nsg25
g1
(g26
g3
NtRp520
(dp521
g29
Nsg30
S'Zeroth Order Baseline Correction'
p522
sg32
(dp523
g34
I2
sg35
I2
sg36
F0.080000000000000002
sg37
F25
sg38
S'Acausal Butterworth (Bandpass)'
p524
sg40
S'4-pole/4-pole'
p525
ssg42
(dp526
g44
F1.43985367
sg45
Nsg46
F5.1892000000000005
ssg47
Nsg48
S'16843'
p527
sg50
S'UP'
p528
sbsg52
g1
(g26
g3
NtRp529
(dp530
g29
Nsg30
S'Zeroth Order Baseline Correction'
p531
sg32
(dp532
g34
I2
sg35
I2
sg36
F0.080000000000000002
sg37
F20
sg38
S'Acausal Butterworth (Bandpass)'
p533
sg40
S'4-pole/4-pole'
p534
ssg42
(dp535
g44
F3.2372953799999999
sg45
Nsg46
F12.913
ssg47
Nsg48
g527
sg50
S'WE'
p536
sbsg61
g1
(g62
g3
NtRp537
(dp538
g65
S'Digital'
p539
sg67
Nsg68
Nsg69
S'Bojano (Nuova)'
p540
sg71
S'DH'
p541
sg73
S'BOJ'
p542
sg75
S''
sg76
S'Italy'
p543
sg78
F537
sg79
S''
sg80
S''
sg82
Nsg83
F14.472103000000001
sg84
S''
sg85
Nsg86
F305.85599999999999
sg87
F41.484451
sg88
Nsg48
S'3629'
p544
sg90
I0
sg91
S''
sbsg92
(lp545
S'16843/16843_H1.cor.acc'
p546
aS'16843/16843_H2.cor.acc'
p547
aS'16843/16843_V.cor.acc'
p548
asg97
g1
(g98
g3
NtRp549
(dp550
g73
S'L Aquila Mainshock'
p551
sg76
S'Italy'
p552
sg83
F13.334
sg103
g104
(S"\x07\xd9\x04\x06\x01 '\x00\x00\x00"
tRp553
sg106
F8.8000000000000007
sg107
g1
(g108
g3
NtRp554
(dp555
g111
S'Mw'
p556
sg113
Nsg114
F6.2999999999999998
sbsg115
g1
(g116
g3
NtRp557
(dp558
g119
S'Normal'
p559
sg121
Nsg122
g1
(g123
g3
NtRp560
(dp561
g126
(dp562
g128
Nsg129
Nsg130
Nssg131
(dp563
g128
F127
sg129
F-109
sg130
F50
ssbsg133
g1
(g134
g3
NtRp564
(dp565
g137
Nsg138
Nsg139
(dp566
g141
Nsg142
F75.170000000000002
sg143
F332.93000000000001
ssg144
Nsg145
(dp567
g141
Nsg142
Nsg143
Nssg147
(dp568
g141
Nsg142
F3.2999999999999998
sg143
F230.33000000000001
ssbsg48
S'20090406_0000075'
p569
sg73
g551
sbsg150
(lp570
g1
(g108
g3
NtRp571
(dp572
g111
S'Ml'
p573
sg113
Nsg114
F5.7999999999999998
sbag1
(g108
g3
NtRp574
(dp575
g111
S'Mw'
p576
sg113
Nsg114
F6.2999999999999998
sbag1
(g108
g3
NtRp577
(dp578
g111
S''
sg113
Nsg114
Nsbag1
(g108
g3
NtRp579
(dp580
g111
S''
sg113
Nsg114
Nsbag1
(g108
g3
NtRp581
(dp582
g111
S''
sg113
Nsg114
Nsbasg87
F42.334000000000003
sg164
g1
(g165
g3
NtRp583
(dp584
g168
Nsg106
Nsg169
Nsg170
Nsg171
Nsg48
g569
sbsg48
g569
sbsg172
F12.125
sg173
(lp585
S'16843/16843_H1.rs'
p586
aS'16843/16843_H2.rs'
p587
aS'16843/16843_V.rs'
p588
asg42
Nsg178
g1
(g26
g3
NtRp589
(dp590
g29
Nsg30
S'Zeroth Order Baseline Correction'
p591
sg32
(dp592
g34
I2
sg35
I2
sg36
F0.080000000000000002
sg37
F20
sg38
S'Acausal Butterworth (Bandpass)'
p593
sg40
S'4-pole/4-pole'
p594
ssg42
(dp595
g44
F3.3346077199999997
sg45
Nsg46
F14.163999999999998
ssg47
Nsg48
g527
sg50
S'NS'
p596
sbsg48
g527
sbag1
(g9
g3
NtRp597
(dp598
g12
g1
(g13
g3
NtRp599
(dp600
g16
Nsg17
F103
sg18
I0
sg19
F91
sg20
F103
sg21
Nsbsg22
S'data/LAquila_Database/records/16853.hdf5'
p601
sg24
Nsg25
g1
(g26
g3
NtRp602
(dp603
g29
Nsg30
S'Zeroth Order Baseline Correction'
p604
sg32
(dp605
g34
I2
sg35
I2
sg36
F0.070000000000000007
sg37
F25
sg38
S'Acausal Butterworth (Bandpass)'
p606
sg40
S'4-pole/4-pole'
p607
ssg42
(dp608
g44
F0.77229337899999995
sg45
Nsg46
F2.8532999999999999
ssg47
Nsg48
S'16853'
p609
sg50
S'UP'
p610
sbsg52
g1
(g26
g3
NtRp611
(dp612
g29
Nsg30
S'Zeroth Order Baseline Correction'
p613
sg32
(dp614
g34
I2
sg35
I2
sg36
F0.070000000000000007
sg37
F30
sg38
S'Acausal Butterworth (Bandpass)'
p615
sg40
S'4-pole/4-pole'
p616
ssg42
(dp617
g44
F1.63535907
sg45
Nsg46
F8.3271999999999995
ssg47
Nsg48
g609
sg50
S'WE'
p618
sbsg61
g1
(g62
g3
NtRp619
(dp620
g65
S'Digital'
p621
sg67
Nsg68
Nsg69
S'Cassino'
p622
sg71
S'MASW'
p623
sg73
S'CSS'
p624
sg75
S''
sg76
S'Italy'
p625
sg78
F174
sg79
S''
sg80
S''
sg82
Nsg83
F13.823090000000001
sg84
S''
sg85
Nsg86
F630
sg87
F41.485790000000001
sg88
Nsg48
S'3660'
p626
sg90
I0
sg91
S''
sbsg92
(lp627
S'16853/16853_H1.cor.acc'
p628
aS'16853/16853_H2.cor.acc'
p629
aS'16853/16853_V.cor.acc'
p630
asg97
g1
(g98
g3
NtRp631
(dp632
g73
S'L Aquila Mainshock'
p633
sg76
S'Italy'
p634
sg83
F13.334
sg103
g104
(S"\x07\xd9\x04\x06\x01 '\x00\x00\x00"
tRp635
sg106
F8.8000000000000007
sg107
g1
(g108
g3
NtRp636
(dp637
g111
S'Mw'
p638
sg113
Nsg114
F6.2999999999999998
sbsg115
g1
(g116
g3
NtRp639
(dp640
g119
S'Normal'
p641
sg121
Nsg122
g1
(g123
g3
NtRp642
(dp643
g126
(dp644
g128
Nsg129
Nsg130
Nssg131
(dp645
g128
F127
sg129
F-109
sg130
F50
ssbsg133
g1
(g134
g3
NtRp646
(dp647
g137
Nsg138
Nsg139
(dp648
g141
Nsg142
F75.170000000000002
sg143
F332.93000000000001
ssg144
Nsg145
(dp649
g141
Nsg142
Nsg143
Nssg147
(dp650
g141
Nsg142
F3.2999999999999998
sg143
F230.33000000000001
ssbsg48
S'20090406_0000075'
p651
sg73
g633
sbsg150
(lp652
g1
(g108
g3
NtRp653
(dp654
g111
S'Ml'
p655
sg113
Nsg114
F5.7999999999999998
sbag1
(g108
g3
NtRp656
(dp657
g111
S'Mw'
p658
sg113
Nsg114
F6.2999999999999998
sbag1
(g108
g3
NtRp659
(dp660
g111
S''
sg113
Nsg114
Nsbag1
(g108
g3
NtRp661
(dp662
g111
S''
sg113
Nsg114
Nsbag1
(g108
g3
NtRp663
(dp664
g111
S''
sg113
Nsg114
Nsbasg87
F42.334000000000003
sg164
g1
(g165
g3
NtRp665
(dp666
g168
Nsg106
Nsg169
Nsg170
Nsg171
Nsg48
g651
sbsg48
g651
sbsg172
F12.856999999999999
sg173
(lp667
S'16853/16853_H1.rs'
p668
aS'16853/16853_H2.rs'
p669
aS'16853/16853_V.rs'
p670
asg42
Nsg178
g1
(g26
g3
NtRp671
(dp672
g29
Nsg30
S'Zeroth Order Baseline Correction'
p673
sg32
(dp674
g34
I2
sg35
I2
sg36
F0.070000000000000007
sg37
F35
sg38
S'Acausal Butterworth (Bandpass)'
p675
sg40
S'4-pole/4-pole'
p676
ssg42
(dp677
g44
F1.40575374
sg45
Nsg46
F9.4423000000000012
ssg47
Nsg48
g609
sg50
S'NS'
p678
sbsg48
g609
sbag1
(g9
g3
NtRp679
(dp680
g12
g1
(g13
g3
NtRp681
(dp682
g16
Nsg17
F187
sg18
I0
sg19
F179
sg20
F187
sg21
Nsbsg22
S'data/LAquila_Database/records/16854.hdf5'
p683
sg24
Nsg25
g1
(g26
g3
NtRp684
(dp685
g29
Nsg30
S'Zeroth Order Baseline Correction'
p686
sg32
(dp687
g34
I2
sg35
I2
sg36
F0.050000000000000003
sg37
F30
sg38
S'Acausal Butterworth (Bandpass)'
p688
sg40
S'4-pole/4-pole'
p689
ssg42
(dp690
g44
F0.31377620499999997
sg45
Nsg46
F1.3005
ssg47
Nsg48
S'16854'
p691
sg50
S'UP'
p692
sbsg52
g1
(g26
g3
NtRp693
(dp694
g29
Nsg30
S'Zeroth Order Baseline Correction'
p695
sg32
(dp696
g34
I2
sg35
I2
sg36
F0.050000000000000003
sg37
F20
sg38
S'Acausal Butterworth (Bandpass)'
p697
sg40
S'4-pole/4-pole'
p698
ssg42
(dp699
g44
F0.73125103800000002
sg45
Nsg46
F4.3606999999999996
ssg47
Nsg48
g691
sg50
S'WE'
p700
sbsg61
g1
(g62
g3
NtRp701
(dp702
g65
S'Digital'
p703
sg67
Nsg68
Nsg69
S'Cattolica'
p704
sg71
S'ESAC-FK'
p705
sg73
S'CTL'
p706
sg75
S''
sg76
S'Italy'
p707
sg78
F12
sg79
S''
sg80
S''
sg82
Nsg83
F12.735825999999999
sg84
S''
sg85
Nsg86
F207.28899999999999
sg87
F43.955105000000003
sg88
Nsg48
S'3661'
p708
sg90
I0
sg91
S''
sbsg92
(lp709
S'16854/16854_H1.cor.acc'
p710
aS'16854/16854_H2.cor.acc'
p711
aS'16854/16854_V.cor.acc'
p712
asg97
g1
(g98
g3
NtRp713
(dp714
g73
S'L Aquila Mainshock'
p715
sg76
S'Italy'
p716
sg83
F13.334
sg103
g104
(S"\x07\xd9\x04\x06\x01 '\x00\x00\x00"
tRp717
sg106
F8.8000000000000007
sg107
g1
(g108
g3
NtRp718
(dp719
g111
S'Mw'
p720
sg113
Nsg114
F6.2999999999999998
sbsg115
g1
(g116
g3
NtRp721
(dp722
g119
S'Normal'
p723
sg121
Nsg122
g1
(g123
g3
NtRp724
(dp725
g126
(dp726
g128
Nsg129
Nsg130
Nssg131
(dp727
g128
F127
sg129
F-109
sg130
F50
ssbsg133
g1
(g134
g3
NtRp728
(dp729
g137
Nsg138
Nsg139
(dp730
g141
Nsg142
F75.170000000000002
sg143
F332.93000000000001
ssg144
Nsg145
(dp731
g141
Nsg142
Nsg143
Nssg147
(dp732
g141
Nsg142
F3.2999999999999998
sg143
F230.33000000000001
ssbsg48
S'20090406_0000075'
p733
sg73
g715
sbsg150
(lp734
g1
(g108
g3
NtRp735
(dp736
g111
S'Ml'
p737
sg113
Nsg114
F5.7999999999999998
sbag1
(g108
g3
NtRp738
(dp739
g111
S'Mw'
p740
sg113
Nsg114
F6.2999999999999998
sbag1
(g108
g3
NtRp741
(dp742
g111
S''
sg113
Nsg114
Nsbag1
(g108
g3
NtRp743
(dp744
g111
S''
sg113
Nsg114
Nsbag1
(g108
g3
NtRp745
(dp746
g111
S''
sg113
Nsg114
Nsbasg87
F42.334000000000003
sg164
g1
(g165
g3
NtRp747
(dp748
g168
Nsg106
Nsg169
Nsg170
Nsg171
Nsg48
g733
sbsg48
g733
sbsg172
F19.399999999999999
sg173
(lp749
S'16854/16854_H1.rs'
p750
aS'16854/16854_H2.rs'
p751
aS'16854/16854_V.rs'
p752
asg42
Nsg178
g1
(g26
g3
NtRp753
(dp754
g29
Nsg30
S'Zeroth Order Baseline Correction'
p755
sg32
(dp756
g34
I2
sg35
I2
sg36
F0.050000000000000003
sg37
F20
sg38
S'Acausal Butterworth (Bandpass)'
p757
sg40
S'4-pole/4-pole'
p758
ssg42
(dp759
g44
F0.73525280400000004
sg45
Nsg46
F3.3887
ssg47
Nsg48
g691
sg50
S'NS'
p760
sbsg48
g691
sbag1
(g9
g3
NtRp761
(dp762
g12
g1
(g13
g3
NtRp763
(dp764
g16
Nsg17
F232
sg18
I0
sg19
F226
sg20
F232
sg21
Nsbsg22
S'data/LAquila_Database/records/16856.hdf5'
p765
sg24
Nsg25
g1
(g26
g3
NtRp766
(dp767
g29
Nsg30
S'Zeroth Order Baseline Correction'
p768
sg32
(dp769
g34
I2
sg35
I2
sg36
F0.10000000000000001
sg37
F30
sg38
S'Acausal Butterworth (Bandpass)'
p770
sg40
S'4-pole/4-pole'
p771
ssg42
(dp772
g44
F0.29811710400000002
sg45
Nsg46
F0.73833031300000007
ssg47
Nsg48
S'16856'
p773
sg50
S'UP'
p774
sbsg52
g1
(g26
g3
NtRp775
(dp776
g29
Nsg30
S'Zeroth Order Baseline Correction'
p777
sg32
(dp778
g34
I2
sg35
I2
sg36
F0.10000000000000001
sg37
F30
sg38
S'Acausal Butterworth (Bandpass)'
p779
sg40
S'4-pole/4-pole'
p780
ssg42
(dp781
g44
F0.59057477899999999
sg45
Nsg46
F1.53892074
ssg47
Nsg48
g773
sg50
S'WE'
p782
sbsg61
g1
(g62
g3
NtRp783
(dp784
g65
S'Digital'
p785
sg67
Nsg68
Nsg69
S'Forli (Nuova)'
p786
sg71
S'DH'
p787
sg73
S'FOR'
p788
sg75
S''
sg76
S'Italy'
p789
sg78
F77
sg79
S''
sg80
S''
sg82
Nsg83
F12.041916000000001
sg84
S''
sg85
Nsg86
F295.93700000000001
sg87
F44.199409000000003
sg88
Nsg48
S'3666'
p790
sg90
I0
sg91
S''
sbsg92
(lp791
S'16856/16856_H1.cor.acc'
p792
aS'16856/16856_H2.cor.acc'
p793
aS'16856/16856_V.cor.acc'
p794
asg97
g1
(g98
g3
NtRp795
(dp796
g73
S'L Aquila Mainshock'
p797
sg76
S'Italy'
p798
sg83
F13.334
sg103
g104
(S"\x07\xd9\x04\x06\x01 '\x00\x00\x00"
tRp799
sg106
F8.8000000000000007
sg107
g1
(g108
g3
NtRp800
(dp801
g111
S'Mw'
p802
sg113
Nsg114
F6.2999999999999998
sbsg115
g1
(g116
g3
NtRp803
(dp804
g119
S'Normal'
p805
sg121
Nsg122
g1
(g123
g3
NtRp806
(dp807
g126
(dp808
g128
Nsg129
Nsg130
Nssg131
(dp809
g128
F127
sg129
F-109
sg130
F50
ssbsg133
g1
(g134
g3
NtRp810
(dp811
g137
Nsg138
Nsg139
(dp812
g141
Nsg142
F75.170000000000002
sg143
F332.93000000000001
ssg144
Nsg145
(dp813
g141
Nsg142
Nsg143
Nssg147
(dp814
g141
Nsg142
F3.2999999999999998
sg143
F230.33000000000001
ssbsg48
S'20090406_0000075'
p815
sg73
g797
sbsg150
(lp816
g1
(g108
g3
NtRp817
(dp818
g111
S'Ml'
p819
sg113
Nsg114
F5.7999999999999998
sbag1
(g108
g3
NtRp820
(dp821
g111
S'Mw'
p822
sg113
Nsg114
F6.2999999999999998
sbag1
(g108
g3
NtRp823
(dp824
g111
S''
sg113
Nsg114
Nsbag1
(g108
g3
NtRp825
(dp826
g111
S''
sg113
Nsg114
Nsbag1
(g108
g3
NtRp827
(dp828
g111
S''
sg113
Nsg114
Nsbasg87
F42.334000000000003
sg164
g1
(g165
g3
NtRp829
(dp830
g168
Nsg106
Nsg169
Nsg170
Nsg171
Nsg48
g815
sbsg48
g815
sbsg172
F9.6999999999999993
sg173
(lp831
S'16856/16856_H1.rs'
p832
aS'16856/16856_H2.rs'
p833
aS'16856/16856_V.rs'
p834
asg42
Nsg178
g1
(g26
g3
NtRp835
(dp836
g29
Nsg30
S'Zeroth Order Baseline Correction'
p837
sg32
(dp838
g34
I2
sg35
I2
sg36
F0.10000000000000001
sg37
F30
sg38
S'Acausal Butterworth (Bandpass)'
p839
sg40
S'4-pole/4-pole'
p840
ssg42
(dp841
g44
F0.661886584
sg45
Nsg46
F1.5980752800000002
ssg47
Nsg48
g773
sg50
S'NS'
p842
sbsg48
g773
sbag1
(g9
g3
NtRp843
(dp844
g12
g1
(g13
g3
NtRp845
(dp846
g16
Nsg17
F20
sg18
I0
sg19
F9
sg20
F18
sg21
Nsbsg22
S'data/LAquila_Database/records/16858.hdf5'
p847
sg24
Nsg25
g1
(g26
g3
NtRp848
(dp849
g29
Nsg30
S'Zeroth Order Baseline Correction'
p850
sg32
(dp851
g34
I2
sg35
I2
sg36
F0.10000000000000001
sg37
F50
sg38
S'Acausal Butterworth (Bandpass)'
p852
sg40
S'4-pole/4-pole'
p853
ssg42
(dp854
g44
F4.44936825
sg45
Nsg46
F107.00062
ssg47
Nsg48
S'16858'
p855
sg50
S'UP'
p856
sbsg52
g1
(g26
g3
NtRp857
(dp858
g29
Nsg30
S'Zeroth Order Baseline Correction'
p859
sg32
(dp860
g34
I2
sg35
I2
sg36
F0.10000000000000001
sg37
F50
sg38
S'Acausal Butterworth (Bandpass)'
p861
sg40
S'4-pole/4-pole'
p862
ssg42
(dp863
g44
F9.7576244800000005
sg45
Nsg46
F148.52283500000001
ssg47
Nsg48
g855
sg50
S'WE'
p864
sbsg61
g1
(g62
g3
NtRp865
(dp866
g65
S'Digital'
p867
sg67
Nsg68
Nsg69
S'Gran Sasso (Lab. Infn Assergi)'
p868
sg71
S'MASW'
p869
sg73
S'GSA'
p870
sg75
S''
sg76
S'Italy'
p871
sg78
F1062
sg79
S''
sg80
S''
sg82
Nsg83
F13.519361999999999
sg84
S''
sg85
Nsg86
F488
sg87
F42.420689000000003
sg88
Nsg48
S'3679'
p872
sg90
I0
sg91
S''
sbsg92
(lp873
S'16858/16858_H1.cor.acc'
p874
aS'16858/16858_H2.cor.acc'
p875
aS'16858/16858_V.cor.acc'
p876
asg97
g1
(g98
g3
NtRp877
(dp878
g73
S'L Aquila Mainshock'
p879
sg76
S'Italy'
p880
sg83
F13.334
sg103
g104
(S"\x07\xd9\x04\x06\x01 '\x00\x00\x00"
tRp881
sg106
F8.8000000000000007
sg107
g1
(g108
g3
NtRp882
(dp883
g111
S'Mw'
p884
sg113
Nsg114
F6.2999999999999998
sbsg115
g1
(g116
g3
NtRp885
(dp886
g119
S'Normal'
p887
sg121
Nsg122
g1
(g123
g3
NtRp888
(dp889
g126
(dp890
g128
Nsg129
Nsg130
Nssg131
(dp891
g128
F127
sg129
F-109
sg130
F50
ssbsg133
g1
(g134
g3
NtRp892
(dp893
g137
Nsg138
Nsg139
(dp894
g141
Nsg142
F75.170000000000002
sg143
F332.93000000000001
ssg144
Nsg145
(dp895
g141
Nsg142
Nsg143
Nssg147
(dp896
g141
Nsg142
F3.2999999999999998
sg143
F230.33000000000001
ssbsg48
S'20090406_0000075'
p897
sg73
g879
sbsg150
(lp898
g1
(g108
g3
NtRp899
(dp900
g111
S'Ml'
p901
sg113
Nsg114
F5.7999999999999998
sbag1
(g108
g3
NtRp902
(dp903
g111
S'Mw'
p904
sg113
Nsg114
F6.2999999999999998
sbag1
(g108
g3
NtRp905
(dp906
g111
S''
sg113
Nsg114
Nsbag1
(g108
g3
NtRp907
(dp908
g111
S''
sg113
Nsg114
Nsbag1
(g108
g3
NtRp909
(dp910
g111
S''
sg113
Nsg114
Nsbasg87
F42.334000000000003
sg164
g1
(g165
g3
NtRp911
(dp912
g168
Nsg106
Nsg169
Nsg170
Nsg171
Nsg48
g897
sbsg48
g897
sbsg172
F9
sg173
(lp913
S'16858/16858_H1.rs'
p914
aS'16858/16858_H2.rs'
p915
aS'16858/16858_V.rs'
p916
asg42
Nsg178
g1
(g26
g3
NtRp917
(dp918
g29
Nsg30
S'Zeroth Order Baseline Correction'
p919
sg32
(dp920
g34
I2
sg35
I2
sg36
F0.10000000000000001
sg37
F50
sg38
S'Acausal Butterworth (Bandpass)'
p921
sg40
S'4-pole/4-pole'
p922
ssg42
(dp923
g44
F7.4663310600000008
sg45
Nsg46
F142.452934
ssg47
Nsg48
g855
sg50
S'NS'
p924
sbsg48
g855
sbag1
(g9
g3
NtRp925
(dp926
g12
g1
(g13
g3
NtRp927
(dp928
g16
Nsg17
F168
sg18
I0
sg19
F168
sg20
F168
sg21
Nsbsg22
S'data/LAquila_Database/records/16878.hdf5'
p929
sg24
Nsg25
g1
(g26
g3
NtRp930
(dp931
g29
Nsg30
S'Zeroth Order Baseline Correction'
p932
sg32
(dp933
g34
I2
sg35
I2
sg36
F0.070000000000000007
sg37
F25
sg38
S'Acausal Butterworth (Bandpass)'
p934
sg40
S'4-pole/4-pole'
p935
ssg42
(dp936
g44
F0.51855132000000004
sg45
Nsg46
F1.8541999999999998
ssg47
Nsg48
S'16878'
p937
sg50
S'UP'
p938
sbsg52
g1
(g26
g3
NtRp939
(dp940
g29
Nsg30
S'Zeroth Order Baseline Correction'
p941
sg32
(dp942
g34
I2
sg35
I2
sg36
F0.070000000000000007
sg37
F20
sg38
S'Acausal Butterworth (Bandpass)'
p943
sg40
S'4-pole/4-pole'
p944
ssg42
(dp945
g44
F0.74274181299999997
sg45
Nsg46
F3.8241999999999998
ssg47
Nsg48
g937
sg50
S'WE'
p946
sbsg61
g1
(g62
g3
NtRp947
(dp948
g65
S'Digital'
p949
sg67
Nsg68
Nsg69
S'Sansepolcro'
p950
sg71
S'DH'
p951
sg73
S'SNS'
p952
sg75
S''
sg76
S'Italy'
p953
sg78
F371
sg79
S''
sg80
S''
sg82
Nsg83
F12.143375000000001
sg84
S''
sg85
Nsg86
F322.62900000000002
sg87
F43.567390000000003
sg88
Nsg48
S'3769'
p954
sg90
I0
sg91
S''
sbsg92
(lp955
S'16878/16878_H1.cor.acc'
p956
aS'16878/16878_H2.cor.acc'
p957
aS'16878/16878_V.cor.acc'
p958
asg97
g1
(g98
g3
NtRp959
(dp960
g73
S'L Aquila Mainshock'
p961
sg76
S'Italy'
p962
sg83
F13.334
sg103
g104
(S"\x07\xd9\x04\x06\x01 '\x00\x00\x00"
tRp963
sg106
F8.8000000000000007
sg107
g1
(g108
g3
NtRp964
(dp965
g111
S'Mw'
p966
sg113
Nsg114
F6.2999999999999998
sbsg115
g1
(g116
g3
NtRp967
(dp968
g119
S'Normal'
p969
sg121
Nsg122
g1
(g123
g3
NtRp970
(dp971
g126
(dp972
g128
Nsg129
Nsg130
Nssg131
(dp973
g128
F127
sg129
F-109
sg130
F50
ssbsg133
g1
(g134
g3
NtRp974
(dp975
g137
Nsg138
Nsg139
(dp976
g141
Nsg142
F75.170000000000002
sg143
F332.93000000000001
ssg144
Nsg145
(dp977
g141
Nsg142
Nsg143
Nssg147
(dp978
g141
Nsg142
F3.2999999999999998
sg143
F230.33000000000001
ssbsg48
S'20090406_0000075'
p979
sg73
g961
sbsg150
(lp980
g1
(g108
g3
NtRp981
(dp982
g111
S'Ml'
p983
sg113
Nsg114
F5.7999999999999998
sbag1
(g108
g3
NtRp984
(dp985
g111
S'Mw'
p986
sg113
Nsg114
F6.2999999999999998
sbag1
(g108
g3
NtRp987
(dp988
g111
S''
sg113
Nsg114
Nsbag1
(g108
g3
NtRp989
(dp990
g111
S''
sg113
Nsg114
Nsbag1
(g108
g3
NtRp991
(dp992
g111
S''
sg113
Nsg114
Nsbasg87
F42.334000000000003
sg164
g1
(g165
g3
NtRp993
(dp994
g168
Nsg106
Nsg169
Nsg170
Nsg171
Nsg48
g979
sbsg48
g979
sbsg172
F13.856999999999999
sg173
(lp995
S'16878/16878_H1.rs'
p996
aS'16878/16878_H2.rs'
p997
aS'16878/16878_V.rs'
p998
asg42
Nsg178
g1
(g26
g3
NtRp999
(dp1000
g29
Nsg30
S'Zeroth Order Baseline Correction'
p1001
sg32
(dp1002
g34
I2
sg35
I2
sg36
F0.070000000000000007
sg37
F25
sg38
S'Acausal Butterworth (Bandpass)'
p1003
sg40
S'4-pole/4-pole'
p1004
ssg42
(dp1005
g44
F0.48558456300000002
sg45
Nsg46
F3.3758999999999997
ssg47
Nsg48
g937
sg50
S'NS'
p1006
sbsg48
g937
sbag1
(g9
g3
NtRp1007
(dp1008
g12
g1
(g13
g3
NtRp1009
(dp1010
g16
Nsg17
F277
sg18
I0
sg19
F277
sg20
F277
sg21
Nsbsg22
S'data/LAquila_Database/records/16882.hdf5'
p1011
sg24
Nsg25
g1
(g26
g3
NtRp1012
(dp1013
g29
Nsg30
S'Zeroth Order Baseline Correction'
p1014
sg32
(dp1015
g34
I2
sg35
I2
sg36
F0.050000000000000003
sg37
F25
sg38
S'Acausal Butterworth (Bandpass)'
p1016
sg40
S'4-pole/4-pole'
p1017
ssg42
(dp1018
g44
F0.25298435699999999
sg45
Nsg46
F0.61634634399999999
ssg47
Nsg48
S'16882'
p1019
sg50
S'UP'
p1020
sbsg52
g1
(g26
g3
NtRp1021
(dp1022
g29
Nsg30
S'Zeroth Order Baseline Correction'
p1023
sg32
(dp1024
g34
I2
sg35
I2
sg36
F0.050000000000000003
sg37
F25
sg38
S'Acausal Butterworth (Bandpass)'
p1025
sg40
S'4-pole/4-pole'
p1026
ssg42
(dp1027
g44
F0.28740243700000001
sg45
Nsg46
F0.94270337299999996
ssg47
Nsg48
g1019
sg50
S'WE'
p1028
sbsg61
g1
(g62
g3
NtRp1029
(dp1030
g65
S'Digital'
p1031
sg67
Nsg68
Nsg69
S'Satriano Di Lucania'
p1032
sg71
S'ESAC'
p1033
sg73
S'STL'
p1034
sg75
S''
sg76
S'Italy'
p1035
sg78
F748
sg79
S''
sg80
S''
sg82
Nsg83
F15.642169000000001
sg84
S''
sg85
Nsg86
F395.40699999999998
sg87
F40.541065000000003
sg88
Nsg48
S'3779'
p1036
sg90
I0
sg91
S''
sbsg92
(lp1037
S'16882/16882_H1.cor.acc'
p1038
aS'16882/16882_H2.cor.acc'
p1039
aS'16882/16882_V.cor.acc'
p1040
asg97
g1
(g98
g3
NtRp1041
(dp1042
g73
S'L Aquila Mainshock'
p1043
sg76
S'Italy'
p1044
sg83
F13.334
sg103
g104
(S"\x07\xd9\x04\x06\x01 '\x00\x00\x00"
tRp1045
sg106
F8.8000000000000007
sg107
g1
(g108
g3
NtRp1046
(dp1047
g111
S'Mw'
p1048
sg113
Nsg114
F6.2999999999999998
sbsg115
g1
(g116
g3
NtRp1049
(dp1050
g119
S'Normal'
p1051
sg121
Nsg122
g1
(g123
g3
NtRp1052
(dp1053
g126
(dp1054
g128
Nsg129
Nsg130
Nssg131
(dp1055
g128
F127
sg129
F-109
sg130
F50
ssbsg133
g1
(g134
g3
NtRp1056
(dp1057
g137
Nsg138
Nsg139
(dp1058
g141
Nsg142
F75.170000000000002
sg143
F332.93000000000001
ssg144
Nsg145
(dp1059
g141
Nsg142
Nsg143
Nssg147
(dp1060
g141
Nsg142
F3.2999999999999998
sg143
F230.33000000000001
ssbsg48
S'20090406_0000075'
p1061
sg73
g1043
sbsg150
(lp1062
g1
(g108
g3
NtRp1063
(dp1064
g111
S'Ml'
p1065
sg113
Nsg114
F5.7999999999999998
sbag1
(g108
g3
NtRp1066
(dp1067
g111
S'Mw'
p1068
sg113
Nsg114
F6.2999999999999998
sbag1
(g108
g3
NtRp1069
(dp1070
g111
S''
sg113
Nsg114
Nsbag1
(g108
g3
NtRp1071
(dp1072
g111
S''
sg113
Nsg114
Nsbag1
(g108
g3
NtRp1073
(dp1074
g111
S''
sg113
Nsg114
Nsbasg87
F42.334000000000003
sg164
g1
(g165
g3
NtRp1075
(dp1076
g168
Nsg106
Nsg169
Nsg170
Nsg171
Nsg48
g1061
sbsg48
g1061
sbsg172
F18
sg173
(lp1077
S'16882/16882_H1.rs'
p1078
aS'16882/16882_H2.rs'
p1079
aS'16882/16882_V.rs'
p1080
asg42
Nsg178
g1
(g26
g3
NtRp1081
(dp1082
g29
Nsg30
S'Zeroth Order Baseline Correction'
p1083
sg32
(dp1084
g34
I2
sg35
I2
sg36
F0.050000000000000003
sg37
F25
sg38
S'Acausal Butterworth (Bandpass)'
p1085
sg40
S'4-pole/4-pole'
p1086
ssg42
(dp1087
g44
F0.29604007100000002
sg45
Nsg46
F0.77132247300000001
ssg47
Nsg48
g1019
sg50
S'NS'
p1088
sbsg48
g1019
sbag1
(g9
g3
NtRp1089
(dp1090
g12
g1
(g13
g3
NtRp1091
(dp1092
g16
Nsg17
F10
sg18
I0
sg19
F0
sg20
F6
sg21
Nsbsg22
S'data/LAquila_Database/records/16889.hdf5'
p1093
sg24
Nsg25
g1
(g26
g3
NtRp1094
(dp1095
g29
Nsg30
S'Zeroth Order Baseline Correction'
p1096
sg32
(dp1097
g34
I2
sg35
I2
sg36
F0.10000000000000001
sg37
F50
sg38
S'Acausal Butterworth (Bandpass)'
p1098
sg40
S'4-pole/4-pole'
p1099
ssg42
(dp1100
g44
F20.1419435
sg45
Nsg46
F363.37302699999998
ssg47
Nsg48
S'16889'
p1101
sg50
S'UP'
p1102
sbsg52
g1
(g26
g3
NtRp1103
(dp1104
g29
Nsg30
S'Zeroth Order Baseline Correction'
p1105
sg32
(dp1106
g34
I2
sg35
I2
sg36
F0.10000000000000001
sg37
F50
sg38
S'Acausal Butterworth (Bandpass)'
p1107
sg40
S'4-pole/4-pole'
p1108
ssg42
(dp1109
g44
F28.352389500000001
sg45
Nsg46
F292.22915499999999
ssg47
Nsg48
g1101
sg50
S'WE'
p1110
sbsg61
g1
(g62
g3
NtRp1111
(dp1112
g65
S'Digital'
p1113
sg67
Nsg68
Nsg69
S"L'Aquila - V. Aterno - Aquil Park In"
p1114
sg71
S'DH'
p1115
sg73
S'AQK'
p1116
sg75
S'Ground level or basement'
p1117
sg76
S'Italy'
p1118
sg78
F726
sg79
S''
sg80
S'Servizio Sismico Nazionale (SSN), Ufficio Sistemi di Monitoraggio, Rome, Italy'
p1119
sg82
Nsg83
F13.400949000000001
sg84
S''
sg85
Nsg86
F716.52700000000004
sg87
F42.344966999999997
sg88
Nsg48
S'2984'
p1120
sg90
I0
sg91
S''
sbsg92
(lp1121
S'16889/16889_H1.cor.acc'
p1122
aS'16889/16889_H2.cor.acc'
p1123
aS'16889/16889_V.cor.acc'
p1124
asg97
g1
(g98
g3
NtRp1125
(dp1126
g73
S'L Aquila Mainshock'
p1127
sg76
S'Italy'
p1128
sg83
F13.334
sg103
g104
(S"\x07\xd9\x04\x06\x01 '\x00\x00\x00"
tRp1129
sg106
F8.8000000000000007
sg107
g1
(g108
g3
NtRp1130
(dp1131
g111
S'Mw'
p1132
sg113
Nsg114
F6.2999999999999998
sbsg115
g1
(g116
g3
NtRp1133
(dp1134
g119
S'Normal'
p1135
sg121
Nsg122
g1
(g123
g3
NtRp1136
(dp1137
g126
(dp1138
g128
Nsg129
Nsg130
Nssg131
(dp1139
g128
F127
sg129
F-109
sg130
F50
ssbsg133
g1
(g134
g3
NtRp1140
(dp1141
g137
Nsg138
Nsg139
(dp1142
g141
Nsg142
F75.170000000000002
sg143
F332.93000000000001
ssg144
Nsg145
(dp1143
g141
Nsg142
Nsg143
Nssg147
(dp1144
g141
Nsg142
F3.2999999999999998
sg143
F230.33000000000001
ssbsg48
S'20090406_0000075'
p1145
sg73
g1127
sbsg150
(lp1146
g1
(g108
g3
NtRp1147
(dp1148
g111
S'Ml'
p1149
sg113
Nsg114
F5.7999999999999998
sbag1
(g108
g3
NtRp1150
(dp1151
g111
S'Mw'
p1152
sg113
Nsg114
F6.2999999999999998
sbag1
(g108
g3
NtRp1153
(dp1154
g111
S''
sg113
Nsg114
Nsbag1
(g108
g3
NtRp1155
(dp1156
g111
S''
sg113
Nsg114
Nsbag1
(g108
g3
NtRp1157
(dp1158
g111
S''
sg113
Nsg114
Nsbasg87
F42.334000000000003
sg164
g1
(g165
g3
NtRp1159
(dp1160
g168
Nsg106
Nsg169
Nsg170
Nsg171
Nsg48
g1145
sbsg48
g1145
sbsg172
F9
sg173
(lp1161
S'16889/16889_H1.rs'
p1162
aS'16889/16889_H2.rs'
p1163
aS'16889/16889_V.rs'
p1164
asg42
Nsg178
g1
(g26
g3
NtRp1165
(dp1166
g29
Nsg30
S'Zeroth Order Baseline Correction'
p1167
sg32
(dp1168
g34
I2
sg35
I2
sg36
F0.10000000000000001
sg37
F50
sg38
S'Acausal Butterworth (Bandpass)'
p1169
sg40
S'4-pole/4-pole'
p1170
ssg42
(dp1171
g44
F31.551894900000001
sg45
Nsg46
F311.67292199999997
ssg47
Nsg48
g1101
sg50
S'NS'
p1172
sbsg48
g1101
sbasg48
S'001'
p1173
sg73
S'LAquila Mainshock'
p1174
sb.